target datalayout = "e-m:e-p270:32:32-p271:32:32-p272:64:64-i64:64-i128:128-f80:128-n8:16:32:64-S128"
target triple = "x86_64-pc-linux-gnu"

%struct.reftable_iterator_vtable = type { ptr, ptr, ptr }
%struct.reftable_block_source = type { ptr, ptr }
%struct.reftable_block = type { ptr, i64, %struct.reftable_block_source }
%struct.reftable_reader = type { ptr, %struct.reftable_block_source, i64, i32, i32, i64, i64, i32, i32, %struct.reftable_reader_offsets, %struct.reftable_reader_offsets, %struct.reftable_reader_offsets, i64 }
%struct.reftable_reader_offsets = type { i32, i64, i64 }
%struct.block_iter = type { i32, ptr, i64, i32, %struct.reftable_buf, %struct.reftable_buf }
%struct.reftable_buf = type { i64, i64, ptr }
%struct.table_iter = type { ptr, i8, i64, %struct.block_reader, %struct.block_iter, i32 }
%struct.block_reader = type { i32, %struct.reftable_block, i32, ptr, ptr, i64, i32, ptr, i16, i32 }
%struct.reftable_iterator = type { ptr, ptr }

@.str.1 = private unnamed_addr constant [18 x i8] c"reftable/reader.c\00", align 1
@.str.2 = private unnamed_addr constant [44 x i8] c"cannot increment ref counter of dead reader\00", align 1
@.str.12 = private unnamed_addr constant [27 x i8] c"size_t overflow: %lu * %lu\00", align 1
@table_iter_vtable = internal global %struct.reftable_iterator_vtable { ptr @table_iter_seek_void, ptr @table_iter_next_void, ptr @table_iter_close_void }, align 8

; Function Attrs: nounwind uwtable
define dso_local void @reftable_reader_incref(ptr noundef %0) #0 {
  %2 = alloca ptr, align 8
  store ptr %0, ptr %2, align 8, !tbaa !26
  %3 = load ptr, ptr %2, align 8, !tbaa !26
  %4 = getelementptr inbounds nuw %struct.reftable_reader, ptr %3, i32 0, i32 12
  %5 = load i64, ptr %4, align 8, !tbaa !63
  %6 = icmp ne i64 %5, 0
  br i1 %6, label %8, label %7

7:                                                ; preds = %1
  call void (ptr, i32, ptr, ...) @BUG_fl(ptr noundef @.str.1, i32 noundef 678, ptr noundef @.str.2) #11
  unreachable

8:                                                ; preds = %1
  %9 = load ptr, ptr %2, align 8, !tbaa !26
  %10 = getelementptr inbounds nuw %struct.reftable_reader, ptr %9, i32 0, i32 12
  %11 = load i64, ptr %10, align 8, !tbaa !63
  %12 = add i64 %11, 1
  store i64 %12, ptr %10, align 8, !tbaa !63
  ret void
}

; Function Attrs: nounwind uwtable
define internal void @iterator_from_table_iter(ptr noundef %0, ptr noundef %1) #0 {
  %3 = alloca ptr, align 8
  %4 = alloca ptr, align 8
  store ptr %0, ptr %3, align 8, !tbaa !42
  store ptr %1, ptr %4, align 8, !tbaa !47
  %5 = load ptr, ptr %4, align 8, !tbaa !47
  %6 = load ptr, ptr %3, align 8, !tbaa !42
  %7 = getelementptr inbounds nuw %struct.reftable_iterator, ptr %6, i32 0, i32 1
  store ptr %5, ptr %7, align 8, !tbaa !57
  %8 = load ptr, ptr %3, align 8, !tbaa !42
  %9 = getelementptr inbounds nuw %struct.reftable_iterator, ptr %8, i32 0, i32 0
  store ptr @table_iter_vtable, ptr %9, align 8, !tbaa !60
  ret void
}

; Function Attrs: nounwind uwtable
define internal i32 @table_iter_init(ptr noundef %0, ptr noundef %1) #0 {
  %3 = alloca ptr, align 8
  %4 = alloca ptr, align 8
  %5 = alloca %struct.block_iter, align 8
  store ptr %0, ptr %3, align 8, !tbaa !47
  store ptr %1, ptr %4, align 8, !tbaa !26
  call void @llvm.lifetime.start.p0(i64 80, ptr %5) #9
  call void @llvm.memset.p0.i64(ptr align 8 %5, i8 0, i64 80, i1 false)
  %6 = load ptr, ptr %3, align 8, !tbaa !47
  call void @llvm.memset.p0.i64(ptr align 8 %6, i8 0, i64 208, i1 false)
  %7 = load ptr, ptr %4, align 8, !tbaa !26
  call void @reftable_reader_incref(ptr noundef %7)
  %8 = load ptr, ptr %4, align 8, !tbaa !26
  %9 = load ptr, ptr %3, align 8, !tbaa !47
  %10 = getelementptr inbounds nuw %struct.table_iter, ptr %9, i32 0, i32 0
  store ptr %8, ptr %10, align 8, !tbaa !49
  %11 = load ptr, ptr %3, align 8, !tbaa !47
  %12 = getelementptr inbounds nuw %struct.table_iter, ptr %11, i32 0, i32 4
  call void @llvm.memcpy.p0.p0.i64(ptr align 8 %12, ptr align 8 %5, i64 80, i1 false), !tbaa.struct !56
  call void @llvm.lifetime.end.p0(i64 80, ptr %5) #9
  ret i32 0
}

; Function Attrs: inlinehint nounwind uwtable
define internal i64 @st_mult(i64 noundef %0, i64 noundef %1) #5 {
  %3 = alloca i64, align 8
  %4 = alloca i64, align 8
  store i64 %0, ptr %3, align 8, !tbaa !17
  store i64 %1, ptr %4, align 8, !tbaa !17
  %5 = load i64, ptr %3, align 8, !tbaa !17
  %6 = icmp ne i64 %5, 0
  br i1 %6, label %7, label %15

7:                                                ; preds = %2
  %8 = load i64, ptr %4, align 8, !tbaa !17
  %9 = load i64, ptr %3, align 8, !tbaa !17
  %10 = udiv i64 -1, %9
  %11 = icmp ugt i64 %8, %10
  br i1 %11, label %12, label %15

12:                                               ; preds = %7
  %13 = load i64, ptr %3, align 8, !tbaa !17
  %14 = load i64, ptr %4, align 8, !tbaa !17
  call void (ptr, ...) @die(ptr noundef @.str.12, i64 noundef %13, i64 noundef %14) #11
  unreachable

15:                                               ; preds = %7, %2
  %16 = load i64, ptr %3, align 8, !tbaa !17
  %17 = load i64, ptr %4, align 8, !tbaa !17
  %18 = mul i64 %16, %17
  ret i64 %18
}

; Function Attrs: nounwind uwtable
define internal ptr @reader_offsets_for(ptr noundef %0, i8 noundef zeroext %1) #0 {
  %3 = alloca ptr, align 8
  %4 = alloca ptr, align 8
  %5 = alloca i8, align 1
  store ptr %0, ptr %4, align 8, !tbaa !26
  store i8 %1, ptr %5, align 1, !tbaa !35
  %6 = load i8, ptr %5, align 1, !tbaa !35
  %7 = zext i8 %6 to i32
  switch i32 %7, label %17 [
    i32 114, label %8
    i32 103, label %11
    i32 111, label %14
  ]

8:                                                ; preds = %2
  %9 = load ptr, ptr %4, align 8, !tbaa !26
  %10 = getelementptr inbounds nuw %struct.reftable_reader, ptr %9, i32 0, i32 9
  store ptr %10, ptr %3, align 8
  br label %18

11:                                               ; preds = %2
  %12 = load ptr, ptr %4, align 8, !tbaa !26
  %13 = getelementptr inbounds nuw %struct.reftable_reader, ptr %12, i32 0, i32 11
  store ptr %13, ptr %3, align 8
  br label %18

14:                                               ; preds = %2
  %15 = load ptr, ptr %4, align 8, !tbaa !26
  %16 = getelementptr inbounds nuw %struct.reftable_reader, ptr %15, i32 0, i32 10
  store ptr %16, ptr %3, align 8
  br label %18

17:                                               ; preds = %2
  call void @abort() #10
  unreachable

18:                                               ; preds = %14, %11, %8
  %19 = load ptr, ptr %3, align 8
  ret ptr %19
}

; Function Attrs: nounwind uwtable
define dso_local i32 @reader_init_iter(ptr noundef %0, ptr noundef %1, i8 noundef zeroext %2) #0 {
  %4 = alloca i32, align 4
  %5 = alloca ptr, align 8
  %6 = alloca ptr, align 8
  %7 = alloca i8, align 1
  %8 = alloca ptr, align 8
  %9 = alloca ptr, align 8
  %10 = alloca i32, align 4
  store ptr %0, ptr %5, align 8, !tbaa !26
  store ptr %1, ptr %6, align 8, !tbaa !42
  store i8 %2, ptr %7, align 1, !tbaa !35
  call void @llvm.lifetime.start.p0(i64 8, ptr %8) #9
  %11 = load ptr, ptr %5, align 8, !tbaa !26
  %12 = load i8, ptr %7, align 1, !tbaa !35
  %13 = call ptr @reader_offsets_for(ptr noundef %11, i8 noundef zeroext %12)
  store ptr %13, ptr %8, align 8, !tbaa !44
  %14 = load ptr, ptr %8, align 8, !tbaa !44
  %15 = getelementptr inbounds nuw %struct.reftable_reader_offsets, ptr %14, i32 0, i32 0
  %16 = load i32, ptr %15, align 8, !tbaa !46
  %17 = icmp ne i32 %16, 0
  br i1 %17, label %18, label %33

18:                                               ; preds = %3
  call void @llvm.lifetime.start.p0(i64 8, ptr %9) #9
  %19 = call i64 @st_mult(i64 noundef 208, i64 noundef 1)
  %20 = call ptr @reftable_malloc(i64 noundef %19)
  store ptr %20, ptr %9, align 8, !tbaa !47
  %21 = load ptr, ptr %9, align 8, !tbaa !47
  %22 = icmp ne ptr %21, null
  br i1 %22, label %24, label %23

23:                                               ; preds = %18
  store i32 -13, ptr %4, align 4
  store i32 1, ptr %10, align 4
  br label %30

24:                                               ; preds = %18
  %25 = load ptr, ptr %9, align 8, !tbaa !47
  %26 = load ptr, ptr %5, align 8, !tbaa !26
  %27 = call i32 @table_iter_init(ptr noundef %25, ptr noundef %26)
  %28 = load ptr, ptr %6, align 8, !tbaa !42
  %29 = load ptr, ptr %9, align 8, !tbaa !47
  call void @iterator_from_table_iter(ptr noundef %28, ptr noundef %29)
  store i32 0, ptr %10, align 4
  br label %30

30:                                               ; preds = %24, %23
  call void @llvm.lifetime.end.p0(i64 8, ptr %9) #9
  %31 = load i32, ptr %10, align 4
  switch i32 %31, label %36 [
    i32 0, label %32
  ]

32:                                               ; preds = %30
  br label %35

33:                                               ; preds = %3
  %34 = load ptr, ptr %6, align 8, !tbaa !42
  call void @iterator_set_empty(ptr noundef %34)
  br label %35

35:                                               ; preds = %33, %32
  store i32 0, ptr %4, align 4
  store i32 1, ptr %10, align 4
  br label %36

36:                                               ; preds = %35, %30
  call void @llvm.lifetime.end.p0(i64 8, ptr %8) #9
  %37 = load i32, ptr %4, align 4
  ret i32 %37
}