; Function Attrs: nounwind uwtable
define dso_local range(i32 -13, 1) i32 @reader_init_iter(ptr noundef %0, ptr noundef %1, i8 noundef zeroext %2) local_unnamed_addr #0 {
  switch i8 %2, label %6 [
    i8 114, label %reader_offsets_for.exit
    i8 103, label %4
    i8 111, label %5
  ]

4:                                                ; preds = %3
  br label %reader_offsets_for.exit

5:                                                ; preds = %3
  br label %reader_offsets_for.exit

6:                                                ; preds = %3
  tail call void @abort() #13
  unreachable

reader_offsets_for.exit:                          ; preds = %3, %4, %5
  %.sink.i = phi i64 [ 88, %5 ], [ 112, %4 ], [ 64, %3 ]
  %7 = getelementptr inbounds nuw i8, ptr %0, i64 %.sink.i
  %8 = load i32, ptr %7, align 8, !tbaa !31
  %.not = icmp eq i32 %8, 0
  br i1 %.not, label %18, label %9

9:                                                ; preds = %reader_offsets_for.exit
  %10 = tail call ptr @reftable_malloc(i64 noundef 208) #12
  %.not12.not = icmp eq ptr %10, null
  br i1 %.not12.not, label %.critedge, label %11

11:                                               ; preds = %9
  tail call void @llvm.memset.p0.i64(ptr noundef nonnull align 8 dereferenceable(208) %10, i8 0, i64 208, i1 false)
  %12 = getelementptr inbounds nuw i8, ptr %0, i64 136
  %13 = load i64, ptr %12, align 8, !tbaa !32
  %.not.i.i = icmp eq i64 %13, 0
  br i1 %.not.i.i, label %14, label %table_iter_init.exit

14:                                               ; preds = %11
  tail call void (ptr, i32, ptr, ...) @BUG_fl(ptr noundef nonnull @.str.1, i32 noundef 678, ptr noundef nonnull @.str.2) #13
  unreachable

table_iter_init.exit:                             ; preds = %11
  %15 = add i64 %13, 1
  store i64 %15, ptr %12, align 8, !tbaa !32
  store ptr %0, ptr %10, align 8, !tbaa !33
  %16 = getelementptr inbounds nuw i8, ptr %10, i64 120
  tail call void @llvm.memset.p0.i64(ptr noundef nonnull align 8 dereferenceable(80) %16, i8 0, i64 80, i1 false)
  %17 = getelementptr inbounds nuw i8, ptr %1, i64 8
  store ptr %10, ptr %17, align 8, !tbaa !41
  store ptr @table_iter_vtable, ptr %1, align 8, !tbaa !44
  br label %.critedge

18:                                               ; preds = %reader_offsets_for.exit
  tail call void @iterator_set_empty(ptr noundef %1) #12
  br label %.critedge

.critedge:                                        ; preds = %18, %table_iter_init.exit, %9
  %.1 = phi i32 [ -13, %9 ], [ 0, %table_iter_init.exit ], [ 0, %18 ]
  ret i32 %.1
}